target datalayout = "e-m:e-p270:32:32-p271:32:32-p272:64:64-i64:64-i128:128-f80:128-n8:16:32:64-S128"
target triple = "x86_64-pc-linux-gnu"

%"class.Ipopt::GenTMatrix" = type <{ %"class.Ipopt::Matrix.base", [3 x i8], ptr, ptr, i8, [7 x i8] }>
%"class.Ipopt::Matrix.base" = type <{ %"class.Ipopt::TaggedObject", %"class.Ipopt::SmartPtr", i32, i8 }>
%"class.Ipopt::TaggedObject" = type { %"class.Ipopt::ReferencedObject.base", %"class.Ipopt::Subject", i32, i32 }
%"class.Ipopt::ReferencedObject.base" = type <{ ptr, i32 }>
%"class.Ipopt::Subject" = type { ptr, %"class.std::vector" }
%"class.std::vector" = type { %"struct.std::_Vector_base" }
%"struct.std::_Vector_base" = type { %"struct.std::_Vector_base<Ipopt::Observer *, std::allocator<Ipopt::Observer *>>::_Vector_impl" }
%"struct.std::_Vector_base<Ipopt::Observer *, std::allocator<Ipopt::Observer *>>::_Vector_impl" = type { %"struct.std::_Vector_base<Ipopt::Observer *, std::allocator<Ipopt::Observer *>>::_Vector_impl_data" }
%"struct.std::_Vector_base<Ipopt::Observer *, std::allocator<Ipopt::Observer *>>::_Vector_impl_data" = type { ptr, ptr, ptr }
%"class.Ipopt::SmartPtr" = type { ptr }

; Function Attrs: mustprogress nounwind uwtable
define linkonce_odr noundef ptr @_ZNK5Ipopt10GenTMatrix6ValuesEv(ptr noundef nonnull align 8 dereferenceable(89) %0) #4 comdat align 2 {
  %2 = alloca ptr, align 8
  store ptr %0, ptr %2, align 8, !tbaa !8
  %3 = load ptr, ptr %2, align 8
  %4 = getelementptr inbounds nuw %"class.Ipopt::GenTMatrix", ptr %3, i32 0, i32 3
  %5 = load ptr, ptr %4, align 8, !tbaa !166
  ret ptr %5
}

; Function Attrs: mustprogress uwtable
define void @_ZN5Ipopt13TripletHelper11FillValues_EiRKNS_10GenTMatrixEPd(i32 noundef %0, ptr noundef nonnull align 8 dereferenceable(89) %1, ptr noundef %2) #0 align 2 {
  %4 = alloca i32, align 4
  %5 = alloca ptr, align 8
  %6 = alloca ptr, align 8
  %7 = alloca ptr, align 8
  %8 = alloca i32, align 4
  store i32 %0, ptr %4, align 4, !tbaa !72
  store ptr %1, ptr %5, align 8, !tbaa !8
  store ptr %2, ptr %6, align 8, !tbaa !115
  call void @llvm.lifetime.start.p0(i64 8, ptr %7) #15
  %9 = load ptr, ptr %5, align 8, !tbaa !8
  %10 = call noundef ptr @_ZNK5Ipopt10GenTMatrix6ValuesEv(ptr noundef nonnull align 8 dereferenceable(89) %9)
  store ptr %10, ptr %7, align 8, !tbaa !115
  call void @llvm.lifetime.start.p0(i64 4, ptr %8) #15
  store i32 0, ptr %8, align 4, !tbaa !72
  br label %11

11:                                               ; preds = %26, %3
  %12 = load i32, ptr %8, align 4, !tbaa !72
  %13 = load i32, ptr %4, align 4, !tbaa !72
  %14 = icmp slt i32 %12, %13
  br i1 %14, label %16, label %15

15:                                               ; preds = %11
  call void @llvm.lifetime.end.p0(i64 4, ptr %8) #15
  br label %29

16:                                               ; preds = %11
  %17 = load ptr, ptr %7, align 8, !tbaa !115
  %18 = load i32, ptr %8, align 4, !tbaa !72
  %19 = sext i32 %18 to i64
  %20 = getelementptr inbounds double, ptr %17, i64 %19
  %21 = load double, ptr %20, align 8, !tbaa !99
  %22 = load ptr, ptr %6, align 8, !tbaa !115
  %23 = load i32, ptr %8, align 4, !tbaa !72
  %24 = sext i32 %23 to i64
  %25 = getelementptr inbounds double, ptr %22, i64 %24
  store double %21, ptr %25, align 8, !tbaa !99
  br label %26

26:                                               ; preds = %16
  %27 = load i32, ptr %8, align 4, !tbaa !72
  %28 = add nsw i32 %27, 1
  store i32 %28, ptr %8, align 4, !tbaa !72
  br label %11, !llvm.loop !116

29:                                               ; preds = %15
  call void @llvm.lifetime.end.p0(i64 8, ptr %7) #15
  ret void
}