; Function Attrs: mustprogress nofree norecurse nosync nounwind memory(read, argmem: readwrite, inaccessiblemem: none) uwtable
define void @_ZN5Ipopt13TripletHelper11FillValues_EiRKNS_10GenTMatrixEPd(i32 noundef %0, ptr noundef nonnull readonly align 8 captures(none) dereferenceable(89) %1, ptr noundef writeonly captures(none) %2) local_unnamed_addr #5 align 2 {
  %4 = getelementptr inbounds nuw i8, ptr %1, i64 80
  %5 = load ptr, ptr %4, align 8, !tbaa !206
  %6 = icmp sgt i32 %0, 0
  br i1 %6, label %.lr.ph.preheader, label %._crit_edge

.lr.ph.preheader:                                 ; preds = %3
  %wide.trip.count = zext nneg i32 %0 to i64
  br label %.lr.ph

._crit_edge:                                      ; preds = %.lr.ph, %3
  ret void

.lr.ph:                                           ; preds = %.lr.ph.preheader, %.lr.ph
  %indvars.iv = phi i64 [ 0, %.lr.ph.preheader ], [ %indvars.iv.next, %.lr.ph ]
  %7 = getelementptr inbounds nuw double, ptr %5, i64 %indvars.iv
  %8 = load double, ptr %7, align 8, !tbaa !168
  %9 = getelementptr inbounds nuw double, ptr %2, i64 %indvars.iv
  store double %8, ptr %9, align 8, !tbaa !168
  %indvars.iv.next = add nuw nsw i64 %indvars.iv, 1
  %exitcond.not = icmp eq i64 %indvars.iv.next, %wide.trip.count
  br i1 %exitcond.not, label %._crit_edge, label %.lr.ph, !llvm.loop !207
}